target datalayout = "e-m:e-p270:32:32-p271:32:32-p272:64:64-i64:64-i128:128-f80:128-n8:16:32:64-S128"
target triple = "x86_64-unknown-linux-gnu"

%class.smt2_pp_environment_dbg = type { %class.smt2_pp_environment, ptr, %class.arith_util, %class.bv_util, %class.array_util, %class.fpa_util, %class.seq_util, %"class.datatype::util", %"class.datalog::dl_decl_util" }
%class.smt2_pp_environment = type { ptr, %class.smt_renaming }
%class.smt_renaming = type { %class.map, %class.map.0 }
%class.map = type { %class.table2map }
%class.table2map = type { %class.core_hashtable }
%class.core_hashtable = type <{ ptr, i32, i32, i32, [4 x i8] }>
%class.map.0 = type { %class.table2map.1 }
%class.table2map.1 = type { %class.core_hashtable.2 }
%class.core_hashtable.2 = type <{ ptr, i32, i32, i32, [4 x i8] }>
%class.arith_util = type { ptr, ptr }
%class.bv_util = type { %class.bv_recognizers, ptr, ptr }
%class.bv_recognizers = type { i32 }
%class.array_util = type { %class.array_recognizers, ptr }
%class.array_recognizers = type { i32 }
%class.fpa_util = type { ptr, ptr, i32, %class.arith_util, %class.bv_util }
%class.seq_util = type { ptr, ptr, ptr, i32, [4 x i8], %"class.seq_util::str", %"class.seq_util::rex" }
%"class.seq_util::str" = type <{ ptr, ptr, i32, [4 x i8] }>
%"class.seq_util::rex" = type { ptr, ptr, i32, %class.vector, %class.ref_vector, %"struct.seq_util::rex::info", %"struct.seq_util::rex::info" }
%class.vector = type { ptr }
%class.ref_vector = type { %class.ref_vector_core }
%class.ref_vector_core = type { %class.ref_manager_wrapper, %class.ptr_vector }
%class.ref_manager_wrapper = type { ptr }
%class.ptr_vector = type { %class.vector.4 }
%class.vector.4 = type { ptr }
%"struct.seq_util::rex::info" = type { i32, i8, i32, i32 }
%"class.datatype::util" = type { ptr, i32, ptr, %class.obj_map, %class.obj_map.7, %class.obj_map.12, %class.obj_map.17, %class.obj_map.17, %class.obj_map.17, %class.obj_map.22, %class.obj_map.22, %class.obj_map.22, %class.ref_vector.27, %class.ref_vector_core.32, %class.ptr_vector.35, i32, %class.ptr_vector.37 }
%class.obj_map = type { %class.core_hashtable.5 }
%class.core_hashtable.5 = type <{ ptr, i32, i32, i32, [4 x i8] }>
%class.obj_map.7 = type { %class.core_hashtable.8 }
%class.core_hashtable.8 = type <{ ptr, i32, i32, i32, [4 x i8] }>
%class.obj_map.12 = type { %class.core_hashtable.13 }
%class.core_hashtable.13 = type <{ ptr, i32, i32, i32, [4 x i8] }>
%class.obj_map.17 = type { %class.core_hashtable.18 }
%class.core_hashtable.18 = type <{ ptr, i32, i32, i32, [4 x i8] }>
%class.obj_map.22 = type { %class.core_hashtable.23 }
%class.core_hashtable.23 = type <{ ptr, i32, i32, i32, [4 x i8] }>
%class.ref_vector.27 = type { %class.ref_vector_core.28 }
%class.ref_vector_core.28 = type { %class.ref_manager_wrapper.29, %class.ptr_vector.30 }
%class.ref_manager_wrapper.29 = type { ptr }
%class.ptr_vector.30 = type { %class.vector.31 }
%class.vector.31 = type { ptr }
%class.ref_vector_core.32 = type { %class.ptr_vector.33 }
%class.ptr_vector.33 = type { %class.vector.34 }
%class.vector.34 = type { ptr }
%class.ptr_vector.35 = type { %class.vector.36 }
%class.vector.36 = type { ptr }
%class.ptr_vector.37 = type { %class.vector.38 }
%class.vector.38 = type { ptr }
%"class.datalog::dl_decl_util" = type <{ ptr, %class.scoped_ptr, %class.scoped_ptr.39, i32, [4 x i8] }>
%class.scoped_ptr = type { ptr }
%class.scoped_ptr.39 = type { ptr }
%class.model_converter = type <{ %class.converter.base, [4 x i8], ptr, i8, [7 x i8] }>
%class.converter.base = type <{ ptr, i32 }>
%class.ast_pp_util = type { ptr, %class.obj_hashtable, %class.smt2_pp_environment_dbg, %class.stacked_value, %class.stacked_value, %class.stacked_value, %class.obj_mark, %class.ref_vector, %class.svector.64, %class.decl_collector }
%class.obj_hashtable = type { %class.core_hashtable.base.72, [4 x i8] }
%class.core_hashtable.base.72 = type <{ ptr, i32, i32, i32 }>
%class.stacked_value = type { i32, %class.vector.73 }
%class.vector.73 = type { ptr }
%class.obj_mark = type { %struct.default_t2uint, %class.bit_vector }
%struct.default_t2uint = type { i8 }
%class.bit_vector = type { i32, i32, ptr }
%class.svector.64 = type { %class.vector.65 }
%class.vector.65 = type { ptr }
%class.decl_collector = type { ptr, %class.lim_svector, %class.lim_svector.75, %class.lim_svector.75, %class.ast_mark, %class.ref_vector.27, %class.svector.64, i32, i32, %"class.datatype::util", %class.array_util, i32, %class.ptr_vector.30 }
%class.lim_svector = type { %class.svector.74, %class.svector.64 }
%class.svector.74 = type { %class.vector.38 }
%class.lim_svector.75 = type { %class.svector.76, %class.svector.64 }
%class.svector.76 = type { %class.vector.77 }
%class.vector.77 = type { ptr }
%class.ast_mark = type { ptr, %class.obj_mark, %class.obj_mark.78 }
%class.obj_mark.78 = type { %"struct.ast_mark::decl2uint", %class.bit_vector }
%"struct.ast_mark::decl2uint" = type { i8 }

; Function Attrs: mustprogress nounwind uwtable
define linkonce_odr hidden noundef nonnull align 8 dereferenceable(56) ptr @_ZN11ast_pp_util3envEv(ptr noundef nonnull align 8 dereferenceable(1232) %this) #5 comdat align 2 {
entry:
  %this.addr = alloca ptr, align 8
  store ptr %this, ptr %this.addr, align 8
  %this1 = load ptr, ptr %this.addr, align 8
  %m_env = getelementptr inbounds %class.ast_pp_util, ptr %this1, i32 0, i32 2
  ret ptr %m_env
}

; Function Attrs: mustprogress uwtable
define hidden void @_ZN15model_converter7set_envEP11ast_pp_util(ptr noundef nonnull align 8 dereferenceable(25) %this, ptr noundef %visitor) unnamed_addr #4 align 2 {
entry:
  %this.addr = alloca ptr, align 8
  %visitor.addr = alloca ptr, align 8
  store ptr %this, ptr %this.addr, align 8
  store ptr %visitor, ptr %visitor.addr, align 8
  %this1 = load ptr, ptr %this.addr, align 8
  %0 = load ptr, ptr %visitor.addr, align 8
  %tobool = icmp ne ptr %0, null
  br i1 %tobool, label %if.then, label %if.else

if.then:                                          ; preds = %entry
  %1 = load ptr, ptr %visitor.addr, align 8
  %call = call noundef nonnull align 8 dereferenceable(56) ptr @_ZN11ast_pp_util3envEv(ptr noundef nonnull align 8 dereferenceable(1232) %1)
  %m_env = getelementptr inbounds %class.model_converter, ptr %this1, i32 0, i32 2
  store ptr %call, ptr %m_env, align 8
  br label %if.end

if.else:                                          ; preds = %entry
  %m_env2 = getelementptr inbounds %class.model_converter, ptr %this1, i32 0, i32 2
  store ptr null, ptr %m_env2, align 8
  br label %if.end

if.end:                                           ; preds = %if.else, %if.then
  ret void
}