; Function Attrs: mustprogress nofree norecurse nosync nounwind willreturn memory(argmem: write) uwtable
define hidden void @_ZN15model_converter7set_envEP11ast_pp_util(ptr nocapture noundef nonnull writeonly align 8 dereferenceable(25) %this, ptr noundef %visitor) unnamed_addr #6 align 2 {
entry:
  %tobool.not = icmp eq ptr %visitor, null
  %m_env.i = getelementptr inbounds i8, ptr %visitor, i64 32
  %spec.select = select i1 %tobool.not, ptr null, ptr %m_env.i
  %0 = getelementptr inbounds i8, ptr %this, i64 16
  store ptr %spec.select, ptr %0, align 8
  ret void
}